; Function Attrs: mustprogress uwtable
define dso_local noundef nonnull ptr @_ZN7doctest6String8allocateEj(ptr noundef nonnull writeonly align 8 dereferenceable(24) initializes((23, 24)) %0, i32 noundef %1) local_unnamed_addr #8 align 2 {
  %3 = icmp ult i32 %1, 24
  br i1 %3, label %4, label %10

4:                                                ; preds = %2
  %5 = zext nneg i32 %1 to i64
  %6 = getelementptr inbounds nuw [24 x i8], ptr %0, i64 0, i64 %5
  store i8 0, ptr %6, align 1, !tbaa !38
  %7 = trunc nuw i32 %1 to i8
  %8 = sub nuw nsw i8 23, %7
  %9 = getelementptr inbounds nuw i8, ptr %0, i64 23
  store i8 %8, ptr %9, align 1, !tbaa !38
  br label %19

10:                                               ; preds = %2
  %11 = getelementptr inbounds nuw i8, ptr %0, i64 23
  store i8 -128, ptr %11, align 1, !tbaa !38
  %12 = getelementptr inbounds nuw i8, ptr %0, i64 8
  store i32 %1, ptr %12, align 8, !tbaa !38
  %13 = add i32 %1, 1
  %14 = getelementptr inbounds nuw i8, ptr %0, i64 12
  store i32 %13, ptr %14, align 4, !tbaa !38
  %15 = zext i32 %13 to i64
  %16 = tail call noalias noundef nonnull ptr @_Znam(i64 noundef %15) #51
  store ptr %16, ptr %0, align 8, !tbaa !38
  %17 = zext i32 %1 to i64
  %18 = getelementptr inbounds nuw i8, ptr %16, i64 %17
  store i8 0, ptr %18, align 1, !tbaa !38
  br label %19

19:                                               ; preds = %10, %4
  %.0 = phi ptr [ %0, %4 ], [ %16, %10 ]
  ret ptr %.0
}